target datalayout = "e-m:e-p270:32:32-p271:32:32-p272:64:64-i64:64-i128:128-f80:128-n8:16:32:64-S128"
target triple = "x86_64-pc-linux-gnu"

%struct.mi_subproc_s = type { i64, i64, %union.pthread_mutex_t, %union.pthread_mutex_t, ptr, ptr, %struct.mi_memid_s }
%union.pthread_mutex_t = type { %struct.__pthread_mutex_s }
%struct.__pthread_mutex_s = type { i32, i32, i32, i32, i32, i16, i16, %struct.__pthread_internal_list }
%struct.__pthread_internal_list = type { ptr, ptr }
%struct.mi_memid_s = type { %union.anon, i8, i8, i8, i32 }
%union.anon = type { %struct.mi_memid_os_info }
%struct.mi_memid_os_info = type { ptr, i64 }

; Function Attrs: inlinehint nounwind uwtable
define internal void @_mi_memid_create(ptr dead_on_unwind noalias writable sret(%struct.mi_memid_s) align 8 %0, i32 noundef %1) #1 {
  %3 = alloca i32, align 4
  store i32 %1, ptr %3, align 4, !tbaa !22
  call void @llvm.memset.p0.i64(ptr align 8 %0, i8 0, i64 24, i1 false)
  %4 = load i32, ptr %3, align 4, !tbaa !22
  %5 = getelementptr inbounds nuw %struct.mi_memid_s, ptr %0, i32 0, i32 4
  store i32 %4, ptr %5, align 4, !tbaa !55
  ret void
}

; Function Attrs: inlinehint nounwind uwtable
define internal void @mi_lock_init(ptr noundef %0) #1 {
  %2 = alloca ptr, align 8
  store ptr %0, ptr %2, align 8, !tbaa !27
  %3 = load ptr, ptr %2, align 8, !tbaa !27
  %4 = call i32 @pthread_mutex_init(ptr noundef %3, ptr noundef null) #13
  ret void
}

; Function Attrs: inlinehint nounwind uwtable
define internal void @_mi_memid_none(ptr dead_on_unwind noalias writable sret(%struct.mi_memid_s) align 8 %0) #1 {
  call void @_mi_memid_create(ptr dead_on_unwind writable sret(%struct.mi_memid_s) align 8 %0, i32 noundef 0) #11
  ret void
}

; Function Attrs: nounwind uwtable
define hidden ptr @mi_subproc_new() #0 {
  %1 = alloca ptr, align 8
  %2 = alloca %struct.mi_memid_s, align 8
  %3 = alloca ptr, align 8
  %4 = alloca i32, align 4
  call void @llvm.lifetime.start.p0(i64 24, ptr %2) #12
  call void @_mi_memid_none(ptr dead_on_unwind writable sret(%struct.mi_memid_s) align 8 %2) #11
  call void @llvm.lifetime.start.p0(i64 8, ptr %3) #12
  %5 = call ptr @_mi_arena_meta_zalloc(i64 noundef 136, ptr noundef %2) #11
  store ptr %5, ptr %3, align 8, !tbaa !17
  %6 = load ptr, ptr %3, align 8, !tbaa !17
  %7 = icmp eq ptr %6, null
  br i1 %7, label %8, label %9

8:                                                ; preds = %0
  store ptr null, ptr %1, align 8
  store i32 1, ptr %4, align 4
  br label %19

9:                                                ; preds = %0
  %10 = load ptr, ptr %3, align 8, !tbaa !17
  %11 = getelementptr inbounds nuw %struct.mi_subproc_s, ptr %10, i32 0, i32 6
  call void @llvm.memcpy.p0.p0.i64(ptr align 8 %11, ptr align 8 %2, i64 24, i1 false), !tbaa.struct !19
  %12 = load ptr, ptr %3, align 8, !tbaa !17
  %13 = getelementptr inbounds nuw %struct.mi_subproc_s, ptr %12, i32 0, i32 4
  store ptr null, ptr %13, align 8, !tbaa !23
  %14 = load ptr, ptr %3, align 8, !tbaa !17
  %15 = getelementptr inbounds nuw %struct.mi_subproc_s, ptr %14, i32 0, i32 2
  call void @mi_lock_init(ptr noundef %15) #11
  %16 = load ptr, ptr %3, align 8, !tbaa !17
  %17 = getelementptr inbounds nuw %struct.mi_subproc_s, ptr %16, i32 0, i32 3
  call void @mi_lock_init(ptr noundef %17) #11
  %18 = load ptr, ptr %3, align 8, !tbaa !17
  store ptr %18, ptr %1, align 8
  store i32 1, ptr %4, align 4
  br label %19

19:                                               ; preds = %9, %8
  call void @llvm.lifetime.end.p0(i64 8, ptr %3) #12
  call void @llvm.lifetime.end.p0(i64 24, ptr %2) #12
  %20 = load ptr, ptr %1, align 8
  ret ptr %20
}