; Function Attrs: nounwind uwtable
define hidden ptr @mi_subproc_new() local_unnamed_addr #1 {
  %1 = alloca %struct.mi_memid_s, align 8
  call void @llvm.lifetime.start.p0(i64 24, ptr nonnull %1) #15
  call void @llvm.memset.p0.i64(ptr noundef nonnull align 8 dereferenceable(24) %1, i8 0, i64 24, i1 false), !alias.scope !16
  %2 = call ptr @_mi_arena_meta_zalloc(i64 noundef 136, ptr noundef nonnull %1) #14
  %3 = icmp eq ptr %2, null
  br i1 %3, label %11, label %4

4:                                                ; preds = %0
  %5 = getelementptr inbounds nuw i8, ptr %2, i64 112
  call void @llvm.memcpy.p0.p0.i64(ptr noundef nonnull align 8 dereferenceable(24) %5, ptr noundef nonnull align 8 dereferenceable(24) %1, i64 24, i1 false), !tbaa.struct !21
  %6 = getelementptr inbounds nuw i8, ptr %2, i64 96
  store ptr null, ptr %6, align 8, !tbaa !25
  %7 = getelementptr inbounds nuw i8, ptr %2, i64 16
  %8 = call i32 @pthread_mutex_init(ptr noundef nonnull %7, ptr noundef null) #14
  %9 = getelementptr inbounds nuw i8, ptr %2, i64 56
  %10 = call i32 @pthread_mutex_init(ptr noundef nonnull %9, ptr noundef null) #14
  br label %11

11:                                               ; preds = %0, %4
  call void @llvm.lifetime.end.p0(i64 24, ptr nonnull %1) #15
  ret ptr %2
}